target datalayout = "e-m:e-p270:32:32-p271:32:32-p272:64:64-i64:64-i128:128-f80:128-n8:16:32:64-S128"
target triple = "x86_64-pc-linux-gnu"

@.str.108 = private unnamed_addr constant [2 x i8] c",\00", align 1

; Function Attrs: null_pointer_is_valid sspstrong uwtable
define internal zeroext i1 @is_mgcp_signal(ptr noundef %0, ptr noundef %1) #0 {
  %3 = alloca i1, align 1
  %4 = alloca ptr, align 8
  %5 = alloca ptr, align 8
  %6 = alloca i32, align 4
  %7 = alloca ptr, align 8
  %8 = alloca i8, align 1
  %9 = alloca i32, align 4
  store ptr %0, ptr %4, align 8
  store ptr %1, ptr %5, align 8
  call void @llvm.lifetime.start.p0(i64 4, ptr %6) #16
  call void @llvm.lifetime.start.p0(i64 8, ptr %7) #16
  call void @llvm.lifetime.start.p0(i64 1, ptr %8) #16
  store i8 0, ptr %8, align 1
  %10 = load ptr, ptr %5, align 8
  %11 = icmp eq ptr %10, null
  br i1 %11, label %12, label %13

12:                                               ; preds = %2
  store i1 false, ptr %3, align 1
  store i32 1, ptr %9, align 4
  br label %59

13:                                               ; preds = %2
  %14 = load ptr, ptr %4, align 8
  %15 = load i8, ptr %14, align 1
  %16 = sext i8 %15 to i32
  %17 = icmp eq i32 %16, 0
  br i1 %17, label %18, label %24

18:                                               ; preds = %13
  %19 = load ptr, ptr %5, align 8
  %20 = load i8, ptr %19, align 1
  %21 = sext i8 %20 to i32
  %22 = icmp eq i32 %21, 0
  br i1 %22, label %23, label %24

23:                                               ; preds = %18
  store i1 true, ptr %3, align 1
  store i32 1, ptr %9, align 4
  br label %59

24:                                               ; preds = %18, %13
  %25 = load ptr, ptr %5, align 8
  %26 = call ptr @g_strsplit(ptr noundef %25, ptr noundef @.str.108, i32 noundef 10)
  store ptr %26, ptr %7, align 8
  store i32 0, ptr %6, align 4
  br label %27

27:                                               ; preds = %52, %24
  %28 = load ptr, ptr %7, align 8
  %29 = load i32, ptr %6, align 4
  %30 = sext i32 %29 to i64
  %31 = getelementptr ptr, ptr %28, i64 %30
  %32 = load ptr, ptr %31, align 8
  %33 = icmp ne ptr %32, null
  br i1 %33, label %34, label %55

34:                                               ; preds = %27
  %35 = load ptr, ptr %7, align 8
  %36 = load i32, ptr %6, align 4
  %37 = sext i32 %36 to i64
  %38 = getelementptr ptr, ptr %35, i64 %37
  %39 = load ptr, ptr %38, align 8
  %40 = call ptr @g_strchug(ptr noundef %39)
  %41 = call ptr @g_strchomp(ptr noundef %40)
  %42 = load ptr, ptr %7, align 8
  %43 = load i32, ptr %6, align 4
  %44 = sext i32 %43 to i64
  %45 = getelementptr ptr, ptr %42, i64 %44
  %46 = load ptr, ptr %45, align 8
  %47 = load ptr, ptr %4, align 8
  %48 = call i32 @strcmp(ptr noundef %46, ptr noundef %47) #19
  %49 = icmp eq i32 %48, 0
  br i1 %49, label %50, label %51

50:                                               ; preds = %34
  store i8 1, ptr %8, align 1
  br label %55

51:                                               ; preds = %34
  br label %52

52:                                               ; preds = %51
  %53 = load i32, ptr %6, align 4
  %54 = add i32 %53, 1
  store i32 %54, ptr %6, align 4
  br label %27, !llvm.loop !35

55:                                               ; preds = %50, %27
  %56 = load ptr, ptr %7, align 8
  call void @g_strfreev(ptr noundef %56)
  %57 = load i8, ptr %8, align 1, !range !9, !noundef !10
  %58 = trunc i8 %57 to i1
  store i1 %58, ptr %3, align 1
  store i32 1, ptr %9, align 4
  br label %59

59:                                               ; preds = %55, %23, %12
  call void @llvm.lifetime.end.p0(i64 1, ptr %8) #16
  call void @llvm.lifetime.end.p0(i64 8, ptr %7) #16
  call void @llvm.lifetime.end.p0(i64 4, ptr %6) #16
  %60 = load i1, ptr %3, align 1
  ret i1 %60
}