; Function Attrs: null_pointer_is_valid sspstrong uwtable
define internal fastcc noundef zeroext i1 @is_mgcp_signal(ptr noundef readonly captures(none) %0, ptr noundef %1) unnamed_addr #0 {
  %3 = icmp eq ptr %1, null
  br i1 %3, label %25, label %4

4:                                                ; preds = %2
  %5 = load i8, ptr %0, align 1
  %6 = icmp eq i8 %5, 0
  br i1 %6, label %7, label %10

7:                                                ; preds = %4
  %8 = load i8, ptr %1, align 1
  %9 = icmp eq i8 %8, 0
  br i1 %9, label %25, label %10

10:                                               ; preds = %7, %4
  %11 = tail call ptr @g_strsplit(ptr noundef nonnull %1, ptr noundef nonnull @.str.108, i32 noundef 10)
  %12 = load ptr, ptr %11, align 8
  %.not18.not = icmp eq ptr %12, null
  br i1 %.not18.not, label %._crit_edge, label %.lr.ph

13:                                               ; preds = %.lr.ph
  %14 = add i32 %.01519, 1
  %15 = sext i32 %14 to i64
  %16 = getelementptr ptr, ptr %11, i64 %15
  %17 = load ptr, ptr %16, align 8
  %.not.not = icmp eq ptr %17, null
  br i1 %.not.not, label %._crit_edge, label %.lr.ph, !llvm.loop !33

.lr.ph:                                           ; preds = %10, %13
  %18 = phi ptr [ %17, %13 ], [ %12, %10 ]
  %19 = phi ptr [ %16, %13 ], [ %11, %10 ]
  %.01519 = phi i32 [ %14, %13 ], [ 0, %10 ]
  %20 = tail call ptr @g_strchug(ptr noundef nonnull %18)
  %21 = tail call ptr @g_strchomp(ptr noundef %20)
  %22 = load ptr, ptr %19, align 8
  %23 = tail call i32 @strcmp(ptr noundef %22, ptr noundef %0) #15
  %24 = icmp eq i32 %23, 0
  br i1 %24, label %._crit_edge, label %13

._crit_edge:                                      ; preds = %13, %.lr.ph, %10
  %.not.lcssa = phi i1 [ false, %10 ], [ %24, %.lr.ph ], [ %24, %13 ]
  tail call void @g_strfreev(ptr noundef %11)
  br label %25

25:                                               ; preds = %7, %2, %._crit_edge
  %.014 = phi i1 [ %.not.lcssa, %._crit_edge ], [ false, %2 ], [ true, %7 ]
  ret i1 %.014
}